target datalayout = "e-m:e-p270:32:32-p271:32:32-p272:64:64-i64:64-i128:128-f80:128-n8:16:32:64-S128"
target triple = "x86_64-pc-linux-gnu"

%struct.OptionalHolder = type { %"class.std::optional.1200" }
%"class.std::optional.1200" = type { %"struct.std::_Optional_base.1201" }
%"struct.std::_Optional_base.1201" = type { %"struct.std::_Optional_payload.1203" }
%"struct.std::_Optional_payload.1203" = type { %"struct.std::_Optional_payload_base.1204" }
%"struct.std::_Optional_payload_base.1204" = type { %"union.std::_Optional_payload_base<MoveOutDetector>::_Storage", i8 }
%"union.std::_Optional_payload_base<MoveOutDetector>::_Storage" = type { %"struct.std::_Optional_payload_base<MoveOutDetector>::_Empty_byte" }
%"struct.std::_Optional_payload_base<MoveOutDetector>::_Empty_byte" = type { i8 }
%struct.MoveOutDetector = type { i8 }

; Function Attrs: mustprogress nounwind uwtable
define internal noundef nonnull align 1 dereferenceable(1) ptr @_ZNKSt22_Optional_payload_baseIZ18test_submodule_stlRN8pybind117module_EE15MoveOutDetectorE6_M_getEv(ptr noundef nonnull align 1 dereferenceable(2) %0) #0 align 2 {
  %2 = alloca ptr, align 8
  store ptr %0, ptr %2, align 8
  %3 = load ptr, ptr %2, align 8
  %4 = getelementptr inbounds %"struct.std::_Optional_payload_base.1204", ptr %3, i32 0, i32 0
  ret ptr %4
}

; Function Attrs: mustprogress nounwind uwtable
define internal noundef nonnull align 1 dereferenceable(1) ptr @_ZNKSt19_Optional_base_implIZ18test_submodule_stlRN8pybind117module_EE15MoveOutDetectorSt14_Optional_baseIS3_Lb1ELb0EEE6_M_getEv(ptr noundef nonnull align 1 dereferenceable(1) %0) #0 align 2 {
  %2 = alloca ptr, align 8
  store ptr %0, ptr %2, align 8
  %3 = load ptr, ptr %2, align 8
  br label %4

4:                                                ; preds = %1
  br label %5

5:                                                ; preds = %4
  br label %6

6:                                                ; preds = %5
  %7 = getelementptr inbounds %"struct.std::_Optional_base.1201", ptr %3, i32 0, i32 0
  %8 = call noundef nonnull align 1 dereferenceable(1) ptr @_ZNKSt22_Optional_payload_baseIZ18test_submodule_stlRN8pybind117module_EE15MoveOutDetectorE6_M_getEv(ptr noundef nonnull align 1 dereferenceable(2) %7) #6
  ret ptr %8
}

; Function Attrs: mustprogress nounwind uwtable
define internal noundef zeroext i1 @_ZNKSt19_Optional_base_implIZ18test_submodule_stlRN8pybind117module_EE15MoveOutDetectorSt14_Optional_baseIS3_Lb1ELb0EEE13_M_is_engagedEv(ptr noundef nonnull align 1 dereferenceable(1) %0) #0 align 2 {
  %2 = alloca ptr, align 8
  store ptr %0, ptr %2, align 8
  %3 = load ptr, ptr %2, align 8
  %4 = getelementptr inbounds %"struct.std::_Optional_base.1201", ptr %3, i32 0, i32 0
  %5 = getelementptr inbounds %"struct.std::_Optional_payload_base.1204", ptr %4, i32 0, i32 1
  %6 = load i8, ptr %5, align 1
  %7 = trunc i8 %6 to i1
  ret i1 %7
}

; Function Attrs: mustprogress nounwind uwtable
define internal noundef ptr @_ZNKSt8optionalIZ18test_submodule_stlRN8pybind117module_EE15MoveOutDetectorEptEv(ptr noundef nonnull align 1 dereferenceable(2) %0) #0 align 2 {
  %2 = alloca ptr, align 8
  store ptr %0, ptr %2, align 8
  %3 = load ptr, ptr %2, align 8
  %4 = call noundef nonnull align 1 dereferenceable(1) ptr @_ZNKSt19_Optional_base_implIZ18test_submodule_stlRN8pybind117module_EE15MoveOutDetectorSt14_Optional_baseIS3_Lb1ELb0EEE6_M_getEv(ptr noundef nonnull align 1 dereferenceable(1) %3) #6
  ret ptr %4
}

; Function Attrs: mustprogress nounwind uwtable
define internal noundef zeroext i1 @_ZNKSt8optionalIZ18test_submodule_stlRN8pybind117module_EE15MoveOutDetectorEcvbEv(ptr noundef nonnull align 1 dereferenceable(2) %0) #0 align 2 {
  %2 = alloca ptr, align 8
  store ptr %0, ptr %2, align 8
  %3 = load ptr, ptr %2, align 8
  %4 = call noundef zeroext i1 @_ZNKSt19_Optional_base_implIZ18test_submodule_stlRN8pybind117module_EE15MoveOutDetectorSt14_Optional_baseIS3_Lb1ELb0EEE13_M_is_engagedEv(ptr noundef nonnull align 1 dereferenceable(1) %3) #6
  ret i1 %4
}

; Function Attrs: mustprogress nounwind uwtable
define internal noundef zeroext i1 @_ZNK14OptionalHolderISt8optionalZ18test_submodule_stlRN8pybind117module_EE15MoveOutDetectorE18member_initializedEv(ptr noundef nonnull align 1 dereferenceable(2) %0) #0 align 2 {
  %2 = alloca ptr, align 8
  store ptr %0, ptr %2, align 8
  %3 = load ptr, ptr %2, align 8
  %4 = getelementptr inbounds %struct.OptionalHolder, ptr %3, i32 0, i32 0
  %5 = call noundef zeroext i1 @_ZNKSt8optionalIZ18test_submodule_stlRN8pybind117module_EE15MoveOutDetectorEcvbEv(ptr noundef nonnull align 1 dereferenceable(2) %4) #6
  br i1 %5, label %6, label %12

6:                                                ; preds = %1
  %7 = getelementptr inbounds %struct.OptionalHolder, ptr %3, i32 0, i32 0
  %8 = call noundef ptr @_ZNKSt8optionalIZ18test_submodule_stlRN8pybind117module_EE15MoveOutDetectorEptEv(ptr noundef nonnull align 1 dereferenceable(2) %7) #6
  %9 = getelementptr inbounds %struct.MoveOutDetector, ptr %8, i32 0, i32 0
  %10 = load i8, ptr %9, align 1
  %11 = trunc i8 %10 to i1
  br label %12

12:                                               ; preds = %6, %1
  %13 = phi i1 [ false, %1 ], [ %11, %6 ]
  ret i1 %13
}