; Function Attrs: mustprogress nofree norecurse nosync nounwind willreturn memory(argmem: read) uwtable
define internal noundef zeroext i1 @_ZNK14OptionalHolderISt8optionalZ18test_submodule_stlRN8pybind117module_EE15MoveOutDetectorE18member_initializedEv(ptr nocapture noundef nonnull readonly align 1 dereferenceable(2) %0) #7 align 2 {
  %2 = getelementptr inbounds i8, ptr %0, i64 1
  %.val = load i8, ptr %2, align 1
  %3 = and i8 %.val, 1
  %4 = icmp ne i8 %3, 0
  %5 = load i8, ptr %0, align 1
  %6 = and i8 %5, 1
  %7 = icmp ne i8 %6, 0
  %8 = select i1 %4, i1 %7, i1 false
  ret i1 %8
}